
Rx.elf:     file format elf32-avr

Sections:
Idx Name          Size      VMA       LMA       File off  Algn
  0 .text         0000052a  00000000  00000000  00000074  2**1
                  CONTENTS, ALLOC, LOAD, READONLY, CODE
  1 .bss          00000014  00800100  00800100  0000059e  2**0
                  ALLOC
  2 .comment      00000030  00000000  00000000  0000059e  2**0
                  CONTENTS, READONLY
  3 .debug_aranges 000000b0  00000000  00000000  000005ce  2**0
                  CONTENTS, READONLY, DEBUGGING
  4 .debug_info   000007c3  00000000  00000000  0000067e  2**0
                  CONTENTS, READONLY, DEBUGGING
  5 .debug_abbrev 00000320  00000000  00000000  00000e41  2**0
                  CONTENTS, READONLY, DEBUGGING
  6 .debug_line   00000a36  00000000  00000000  00001161  2**0
                  CONTENTS, READONLY, DEBUGGING
  7 .debug_frame  0000017c  00000000  00000000  00001b98  2**2
                  CONTENTS, READONLY, DEBUGGING
  8 .debug_str    00007721  00000000  00000000  00001d14  2**0
                  CONTENTS, READONLY, DEBUGGING
  9 .debug_loc    000002c0  00000000  00000000  00009435  2**0
                  CONTENTS, READONLY, DEBUGGING
 10 .debug_ranges 00000090  00000000  00000000  000096f5  2**0
                  CONTENTS, READONLY, DEBUGGING
 11 .debug_macro  000003d1  00000000  00000000  00009785  2**0
                  CONTENTS, READONLY, DEBUGGING

Disassembly of section .text:

00000000 <__vectors>:
   0:	3a c0       	rjmp	.+116    	; 0x76 <__ctors_end>
   2:	00 00       	nop
   4:	48 c0       	rjmp	.+144    	; 0x96 <__bad_interrupt>
   6:	00 00       	nop
   8:	46 c0       	rjmp	.+140    	; 0x96 <__bad_interrupt>
   a:	00 00       	nop
   c:	44 c0       	rjmp	.+136    	; 0x96 <__bad_interrupt>
   e:	00 00       	nop
  10:	42 c0       	rjmp	.+132    	; 0x96 <__bad_interrupt>
  12:	00 00       	nop
  14:	40 c0       	rjmp	.+128    	; 0x96 <__bad_interrupt>
  16:	00 00       	nop
  18:	3e c0       	rjmp	.+124    	; 0x96 <__bad_interrupt>
  1a:	00 00       	nop
  1c:	3c c0       	rjmp	.+120    	; 0x96 <__bad_interrupt>
  1e:	00 00       	nop
  20:	3a c0       	rjmp	.+116    	; 0x96 <__bad_interrupt>
  22:	00 00       	nop
  24:	38 c0       	rjmp	.+112    	; 0x96 <__bad_interrupt>
  26:	00 00       	nop
  28:	36 c0       	rjmp	.+108    	; 0x96 <__bad_interrupt>
  2a:	00 00       	nop
  2c:	34 c0       	rjmp	.+104    	; 0x96 <__bad_interrupt>
  2e:	00 00       	nop
  30:	32 c0       	rjmp	.+100    	; 0x96 <__bad_interrupt>
  32:	00 00       	nop
  34:	39 c2       	rjmp	.+1138   	; 0x4a8 <__vector_13>
  36:	00 00       	nop
  38:	2e c0       	rjmp	.+92     	; 0x96 <__bad_interrupt>
  3a:	00 00       	nop
  3c:	2c c0       	rjmp	.+88     	; 0x96 <__bad_interrupt>
  3e:	00 00       	nop
  40:	2a c0       	rjmp	.+84     	; 0x96 <__bad_interrupt>
  42:	00 00       	nop
  44:	28 c0       	rjmp	.+80     	; 0x96 <__bad_interrupt>
  46:	00 00       	nop
  48:	0a c2       	rjmp	.+1044   	; 0x45e <__vector_18>
  4a:	00 00       	nop
  4c:	24 c0       	rjmp	.+72     	; 0x96 <__bad_interrupt>
  4e:	00 00       	nop
  50:	22 c0       	rjmp	.+68     	; 0x96 <__bad_interrupt>
  52:	00 00       	nop
  54:	20 c0       	rjmp	.+64     	; 0x96 <__bad_interrupt>
  56:	00 00       	nop
  58:	1e c0       	rjmp	.+60     	; 0x96 <__bad_interrupt>
  5a:	00 00       	nop
  5c:	1c c0       	rjmp	.+56     	; 0x96 <__bad_interrupt>
  5e:	00 00       	nop
  60:	1a c0       	rjmp	.+52     	; 0x96 <__bad_interrupt>
  62:	00 00       	nop
  64:	18 c0       	rjmp	.+48     	; 0x96 <__bad_interrupt>
  66:	00 00       	nop
  68:	4a 01       	movw	r8, r20
  6a:	ad 01       	movw	r20, r26
  6c:	06 01       	movw	r0, r12
  6e:	88 01       	movw	r16, r16
  70:	1f 01       	movw	r2, r30
  72:	2e 01       	movw	r4, r28
  74:	98 01       	movw	r18, r16

00000076 <__ctors_end>:
  76:	11 24       	eor	r1, r1
  78:	1f be       	out	0x3f, r1	; 63
  7a:	cf ef       	ldi	r28, 0xFF	; 255
  7c:	d8 e0       	ldi	r29, 0x08	; 8
  7e:	de bf       	out	0x3e, r29	; 62
  80:	cd bf       	out	0x3d, r28	; 61

00000082 <__do_clear_bss>:
  82:	21 e0       	ldi	r18, 0x01	; 1
  84:	a0 e0       	ldi	r26, 0x00	; 0
  86:	b1 e0       	ldi	r27, 0x01	; 1
  88:	01 c0       	rjmp	.+2      	; 0x8c <.do_clear_bss_start>

0000008a <.do_clear_bss_loop>:
  8a:	1d 92       	st	X+, r1

0000008c <.do_clear_bss_start>:
  8c:	a4 31       	cpi	r26, 0x14	; 20
  8e:	b2 07       	cpc	r27, r18
  90:	e1 f7       	brne	.-8      	; 0x8a <.do_clear_bss_loop>
  92:	1b d2       	rcall	.+1078   	; 0x4ca <main>
  94:	48 c2       	rjmp	.+1168   	; 0x526 <_exit>

00000096 <__bad_interrupt>:
  96:	b4 cf       	rjmp	.-152    	; 0x0 <__vectors>

00000098 <init_variables_main>:
	TIMSK2 = (0<<OCIE2B)|(0<<OCIE2A)|(0<<TOIE2);
	TIFR2 =	(0<<OCF2B)|(1<<OCF2A)|(1<<TOV2);
	ASSR = (1<<EXCLK)|(1<<AS2)|(0<<TCN2UB)|(0<<OCR2AUB)|(0<<OCR2BUB)|(0<<TCR2AUB)|(0<<TCR2BUB);
	GTCCR = (0<<TSM)|(0<<PSRASY)|(0<<PSRSYNC);
	OCR2A = 128;
	OCR2B = 128;
  98:	e2 e1       	ldi	r30, 0x12	; 18
  9a:	f1 e0       	ldi	r31, 0x01	; 1
  9c:	80 81       	ld	r24, Z
  9e:	83 66       	ori	r24, 0x63	; 99
  a0:	8f 77       	andi	r24, 0x7F	; 127
  a2:	80 83       	st	Z, r24
  a4:	e3 e1       	ldi	r30, 0x13	; 19
  a6:	f1 e0       	ldi	r31, 0x01	; 1
  a8:	80 81       	ld	r24, Z
  aa:	8e 7f       	andi	r24, 0xFE	; 254
  ac:	80 83       	st	Z, r24
  ae:	88 eb       	ldi	r24, 0xB8	; 184
  b0:	9b e0       	ldi	r25, 0x0B	; 11
  b2:	90 93 05 01 	sts	0x0105, r25
  b6:	80 93 04 01 	sts	0x0104, r24
  ba:	8b e0       	ldi	r24, 0x0B	; 11
  bc:	80 93 01 01 	sts	0x0101, r24
  c0:	80 e4       	ldi	r24, 0x40	; 64
  c2:	9c e9       	ldi	r25, 0x9C	; 156
  c4:	90 93 03 01 	sts	0x0103, r25
  c8:	80 93 02 01 	sts	0x0102, r24
  cc:	8c e9       	ldi	r24, 0x9C	; 156
  ce:	80 93 87 00 	sts	0x0087, r24
  d2:	80 91 02 01 	lds	r24, 0x0102
  d6:	80 93 86 00 	sts	0x0086, r24
  da:	80 91 05 01 	lds	r24, 0x0105
  de:	80 93 89 00 	sts	0x0089, r24
  e2:	80 91 04 01 	lds	r24, 0x0104
  e6:	80 93 88 00 	sts	0x0088, r24
  ea:	10 92 8b 00 	sts	0x008B, r1
  ee:	8a e0       	ldi	r24, 0x0A	; 10
  f0:	80 93 8a 00 	sts	0x008A, r24
  f4:	08 95       	ret

000000f6 <init_variables>:
  f6:	80 91 12 01 	lds	r24, 0x0112
  fa:	80 ff       	sbrs	r24, 0
  fc:	22 c0       	rjmp	.+68     	; 0x142 <init_variables+0x4c>
  fe:	40 91 01 01 	lds	r20, 0x0101
 102:	80 91 02 01 	lds	r24, 0x0102
 106:	90 91 03 01 	lds	r25, 0x0103
 10a:	48 9f       	mul	r20, r24
 10c:	90 01       	movw	r18, r0
 10e:	49 9f       	mul	r20, r25
 110:	30 0d       	add	r19, r0
 112:	11 24       	eor	r1, r1
 114:	22 0f       	add	r18, r18
 116:	23 2f       	mov	r18, r19
 118:	22 1f       	adc	r18, r18
 11a:	33 0b       	sbc	r19, r19
 11c:	31 95       	neg	r19
 11e:	ab e6       	ldi	r26, 0x6B	; 107
 120:	b3 e0       	ldi	r27, 0x03	; 3
 122:	f2 d1       	rcall	.+996    	; 0x508 <__umulhisi3>
 124:	a0 e0       	ldi	r26, 0x00	; 0
 126:	b0 e0       	ldi	r27, 0x00	; 0
 128:	80 93 06 01 	sts	0x0106, r24
 12c:	90 93 07 01 	sts	0x0107, r25
 130:	a0 93 08 01 	sts	0x0108, r26
 134:	b0 93 09 01 	sts	0x0109, r27
 138:	e2 e1       	ldi	r30, 0x12	; 18
 13a:	f1 e0       	ldi	r31, 0x01	; 1
 13c:	80 81       	ld	r24, Z
 13e:	8e 7f       	andi	r24, 0xFE	; 254
 140:	80 83       	st	Z, r24
 142:	80 91 12 01 	lds	r24, 0x0112
 146:	81 ff       	sbrs	r24, 1
 148:	23 c0       	rjmp	.+70     	; 0x190 <init_variables+0x9a>
 14a:	80 e0       	ldi	r24, 0x00	; 0
 14c:	80 93 0d 01 	sts	0x010D, r24
 150:	88 bd       	out	0x28, r24	; 40
 152:	80 91 12 01 	lds	r24, 0x0112
 156:	82 95       	swap	r24
 158:	86 95       	lsr	r24
 15a:	87 70       	andi	r24, 0x07	; 7
 15c:	83 70       	andi	r24, 0x03	; 3
 15e:	90 e0       	ldi	r25, 0x00	; 0
 160:	82 30       	cpi	r24, 0x02	; 2
 162:	91 05       	cpc	r25, r1
 164:	59 f0       	breq	.+22     	; 0x17c <init_variables+0x86>
 166:	83 30       	cpi	r24, 0x03	; 3
 168:	91 05       	cpc	r25, r1
 16a:	59 f0       	breq	.+22     	; 0x182 <init_variables+0x8c>
 16c:	01 97       	sbiw	r24, 0x01	; 1
 16e:	19 f0       	breq	.+6      	; 0x176 <init_variables+0x80>
 170:	82 e0       	ldi	r24, 0x02	; 2
 172:	85 bd       	out	0x25, r24	; 37
 174:	08 c0       	rjmp	.+16     	; 0x186 <init_variables+0x90>
 176:	83 e0       	ldi	r24, 0x03	; 3
 178:	85 bd       	out	0x25, r24	; 37
 17a:	05 c0       	rjmp	.+10     	; 0x186 <init_variables+0x90>
 17c:	84 e0       	ldi	r24, 0x04	; 4
 17e:	85 bd       	out	0x25, r24	; 37
 180:	02 c0       	rjmp	.+4      	; 0x186 <init_variables+0x90>
 182:	85 e0       	ldi	r24, 0x05	; 5
 184:	85 bd       	out	0x25, r24	; 37
 186:	e2 e1       	ldi	r30, 0x12	; 18
 188:	f1 e0       	ldi	r31, 0x01	; 1
 18a:	80 81       	ld	r24, Z
 18c:	8d 7f       	andi	r24, 0xFD	; 253
 18e:	80 83       	st	Z, r24
 190:	08 95       	ret

00000192 <servo_angle>:
 192:	90 91 0a 01 	lds	r25, 0x010A
 196:	9f 70       	andi	r25, 0x0F	; 15
 198:	21 f1       	breq	.+72     	; 0x1e2 <servo_angle+0x50>
 19a:	90 91 0a 01 	lds	r25, 0x010A
 19e:	94 ff       	sbrs	r25, 4
 1a0:	10 c0       	rjmp	.+32     	; 0x1c2 <servo_angle+0x30>
 1a2:	40 91 06 01 	lds	r20, 0x0106
 1a6:	50 91 07 01 	lds	r21, 0x0107
 1aa:	84 9f       	mul	r24, r20
 1ac:	90 01       	movw	r18, r0
 1ae:	85 9f       	mul	r24, r21
 1b0:	30 0d       	add	r19, r0
 1b2:	11 24       	eor	r1, r1
 1b4:	80 91 04 01 	lds	r24, 0x0104
 1b8:	90 91 05 01 	lds	r25, 0x0105
 1bc:	82 0f       	add	r24, r18
 1be:	93 1f       	adc	r25, r19
 1c0:	08 95       	ret
 1c2:	40 91 06 01 	lds	r20, 0x0106
 1c6:	50 91 07 01 	lds	r21, 0x0107
 1ca:	84 9f       	mul	r24, r20
 1cc:	90 01       	movw	r18, r0
 1ce:	85 9f       	mul	r24, r21
 1d0:	30 0d       	add	r19, r0
 1d2:	11 24       	eor	r1, r1
 1d4:	80 91 04 01 	lds	r24, 0x0104
 1d8:	90 91 05 01 	lds	r25, 0x0105
 1dc:	82 1b       	sub	r24, r18
 1de:	93 0b       	sbc	r25, r19
 1e0:	08 95       	ret
 1e2:	80 91 04 01 	lds	r24, 0x0104
 1e6:	90 91 05 01 	lds	r25, 0x0105
 1ea:	08 95       	ret

000001ec <processing>:
 1ec:	80 93 0a 01 	sts	0x010A, r24
 1f0:	80 91 0a 01 	lds	r24, 0x010A
 1f4:	82 95       	swap	r24
 1f6:	86 95       	lsr	r24
 1f8:	87 70       	andi	r24, 0x07	; 7
 1fa:	90 e0       	ldi	r25, 0x00	; 0
 1fc:	87 30       	cpi	r24, 0x07	; 7
 1fe:	91 05       	cpc	r25, r1
 200:	08 f0       	brcs	.+2      	; 0x204 <processing+0x18>
 202:	e4 c0       	rjmp	.+456    	; 0x3cc <processing+0x1e0>
 204:	fc 01       	movw	r30, r24
 206:	ec 5c       	subi	r30, 0xCC	; 204
 208:	ff 4f       	sbci	r31, 0xFF	; 255
 20a:	78 c1       	rjmp	.+752    	; 0x4fc <__tablejump2__>
 20c:	80 91 0a 01 	lds	r24, 0x010A
 210:	8f 70       	andi	r24, 0x0F	; 15
 212:	21 f4       	brne	.+8      	; 0x21c <processing+0x30>
 214:	84 b5       	in	r24, 0x24	; 36
 216:	80 63       	ori	r24, 0x30	; 48
 218:	84 bd       	out	0x24, r24	; 36
 21a:	d8 c0       	rjmp	.+432    	; 0x3cc <processing+0x1e0>
 21c:	80 91 0a 01 	lds	r24, 0x010A
 220:	80 e0       	ldi	r24, 0x00	; 0
 222:	80 93 00 01 	sts	0x0100, r24
 226:	88 bd       	out	0x28, r24	; 40
 228:	80 91 0a 01 	lds	r24, 0x010A
 22c:	84 ff       	sbrs	r24, 4
 22e:	02 c0       	rjmp	.+4      	; 0x234 <processing+0x48>
 230:	28 9a       	sbi	0x05, 0	; 5
 232:	01 c0       	rjmp	.+2      	; 0x236 <processing+0x4a>
 234:	28 98       	cbi	0x05, 0	; 5
 236:	84 b5       	in	r24, 0x24	; 36
 238:	80 63       	ori	r24, 0x30	; 48
 23a:	84 bd       	out	0x24, r24	; 36
 23c:	c7 c0       	rjmp	.+398    	; 0x3cc <processing+0x1e0>
 23e:	80 91 0a 01 	lds	r24, 0x010A
 242:	8f 70       	andi	r24, 0x0F	; 15
 244:	a6 df       	rcall	.-180    	; 0x192 <servo_angle>
 246:	80 93 0b 01 	sts	0x010B, r24
 24a:	90 93 0c 01 	sts	0x010C, r25
 24e:	90 93 89 00 	sts	0x0089, r25
 252:	80 91 0b 01 	lds	r24, 0x010B
 256:	80 93 88 00 	sts	0x0088, r24
 25a:	b8 c0       	rjmp	.+368    	; 0x3cc <processing+0x1e0>
 25c:	80 91 0a 01 	lds	r24, 0x010A
 260:	8f 71       	andi	r24, 0x1F	; 31
 262:	31 f4       	brne	.+12     	; 0x270 <processing+0x84>
 264:	ee e0       	ldi	r30, 0x0E	; 14
 266:	f1 e0       	ldi	r31, 0x01	; 1
 268:	80 81       	ld	r24, Z
 26a:	8e 7f       	andi	r24, 0xFE	; 254
 26c:	80 83       	st	Z, r24
 26e:	0c c0       	rjmp	.+24     	; 0x288 <processing+0x9c>
 270:	ee e0       	ldi	r30, 0x0E	; 14
 272:	f1 e0       	ldi	r31, 0x01	; 1
 274:	80 81       	ld	r24, Z
 276:	81 60       	ori	r24, 0x01	; 1
 278:	80 83       	st	Z, r24
 27a:	90 91 0a 01 	lds	r25, 0x010A
 27e:	9f 71       	andi	r25, 0x1F	; 31
 280:	99 0f       	add	r25, r25
 282:	81 7c       	andi	r24, 0xC1	; 193
 284:	89 2b       	or	r24, r25
 286:	80 83       	st	Z, r24
 288:	e2 e1       	ldi	r30, 0x12	; 18
 28a:	f1 e0       	ldi	r31, 0x01	; 1
 28c:	80 81       	ld	r24, Z
 28e:	80 68       	ori	r24, 0x80	; 128
 290:	80 83       	st	Z, r24
 292:	9c c0       	rjmp	.+312    	; 0x3cc <processing+0x1e0>
 294:	80 91 0a 01 	lds	r24, 0x010A
 298:	8f 70       	andi	r24, 0x0F	; 15
 29a:	81 f4       	brne	.+32     	; 0x2bc <processing+0xd0>
 29c:	80 91 0a 01 	lds	r24, 0x010A
 2a0:	84 ff       	sbrs	r24, 4
 2a2:	06 c0       	rjmp	.+12     	; 0x2b0 <processing+0xc4>
 2a4:	ef e0       	ldi	r30, 0x0F	; 15
 2a6:	f1 e0       	ldi	r31, 0x01	; 1
 2a8:	80 81       	ld	r24, Z
 2aa:	8e 7f       	andi	r24, 0xFE	; 254
 2ac:	80 83       	st	Z, r24
 2ae:	2a c0       	rjmp	.+84     	; 0x304 <processing+0x118>
 2b0:	ef e0       	ldi	r30, 0x0F	; 15
 2b2:	f1 e0       	ldi	r31, 0x01	; 1
 2b4:	80 81       	ld	r24, Z
 2b6:	8d 7f       	andi	r24, 0xFD	; 253
 2b8:	80 83       	st	Z, r24
 2ba:	24 c0       	rjmp	.+72     	; 0x304 <processing+0x118>
 2bc:	80 91 0a 01 	lds	r24, 0x010A
 2c0:	84 ff       	sbrs	r24, 4
 2c2:	0c c0       	rjmp	.+24     	; 0x2dc <processing+0xf0>
 2c4:	90 91 0a 01 	lds	r25, 0x010A
 2c8:	9f 70       	andi	r25, 0x0F	; 15
 2ca:	ef e0       	ldi	r30, 0x0F	; 15
 2cc:	f1 e0       	ldi	r31, 0x01	; 1
 2ce:	99 0f       	add	r25, r25
 2d0:	99 0f       	add	r25, r25
 2d2:	80 81       	ld	r24, Z
 2d4:	83 7c       	andi	r24, 0xC3	; 195
 2d6:	89 2b       	or	r24, r25
 2d8:	80 83       	st	Z, r24
 2da:	14 c0       	rjmp	.+40     	; 0x304 <processing+0x118>
 2dc:	80 91 0a 01 	lds	r24, 0x010A
 2e0:	98 2f       	mov	r25, r24
 2e2:	9f 70       	andi	r25, 0x0F	; 15
 2e4:	ef e0       	ldi	r30, 0x0F	; 15
 2e6:	f1 e0       	ldi	r31, 0x01	; 1
 2e8:	82 95       	swap	r24
 2ea:	88 0f       	add	r24, r24
 2ec:	88 0f       	add	r24, r24
 2ee:	80 7c       	andi	r24, 0xC0	; 192
 2f0:	20 81       	ld	r18, Z
 2f2:	2f 73       	andi	r18, 0x3F	; 63
 2f4:	82 2b       	or	r24, r18
 2f6:	80 83       	st	Z, r24
 2f8:	96 95       	lsr	r25
 2fa:	96 95       	lsr	r25
 2fc:	81 81       	ldd	r24, Z+1	; 0x01
 2fe:	8c 7f       	andi	r24, 0xFC	; 252
 300:	89 2b       	or	r24, r25
 302:	81 83       	std	Z+1, r24	; 0x01
 304:	e2 e1       	ldi	r30, 0x12	; 18
 306:	f1 e0       	ldi	r31, 0x01	; 1
 308:	80 81       	ld	r24, Z
 30a:	80 68       	ori	r24, 0x80	; 128
 30c:	80 83       	st	Z, r24
 30e:	5e c0       	rjmp	.+188    	; 0x3cc <processing+0x1e0>
 310:	90 91 0a 01 	lds	r25, 0x010A
 314:	92 95       	swap	r25
 316:	91 70       	andi	r25, 0x01	; 1
 318:	e1 e1       	ldi	r30, 0x11	; 17
 31a:	f1 e0       	ldi	r31, 0x01	; 1
 31c:	80 81       	ld	r24, Z
 31e:	90 fb       	bst	r25, 0
 320:	80 f9       	bld	r24, 0
 322:	80 83       	st	Z, r24
 324:	e2 e1       	ldi	r30, 0x12	; 18
 326:	f1 e0       	ldi	r31, 0x01	; 1
 328:	80 81       	ld	r24, Z
 32a:	80 68       	ori	r24, 0x80	; 128
 32c:	80 83       	st	Z, r24
 32e:	4e c0       	rjmp	.+156    	; 0x3cc <processing+0x1e0>
 330:	20 91 0a 01 	lds	r18, 0x010A
 334:	e2 e1       	ldi	r30, 0x12	; 18
 336:	f1 e0       	ldi	r31, 0x01	; 1
 338:	22 0f       	add	r18, r18
 33a:	22 0f       	add	r18, r18
 33c:	20 76       	andi	r18, 0x60	; 96
 33e:	90 81       	ld	r25, Z
 340:	9f 79       	andi	r25, 0x9F	; 159
 342:	92 2b       	or	r25, r18
 344:	90 83       	st	Z, r25
 346:	80 91 0a 01 	lds	r24, 0x010A
 34a:	87 70       	andi	r24, 0x07	; 7
 34c:	88 0f       	add	r24, r24
 34e:	88 0f       	add	r24, r24
 350:	93 7e       	andi	r25, 0xE3	; 227
 352:	89 2b       	or	r24, r25
 354:	82 60       	ori	r24, 0x02	; 2
 356:	80 83       	st	Z, r24
 358:	39 c0       	rjmp	.+114    	; 0x3cc <processing+0x1e0>
 35a:	80 91 0a 01 	lds	r24, 0x010A
 35e:	8c 70       	andi	r24, 0x0C	; 12
 360:	81 f1       	breq	.+96     	; 0x3c2 <processing+0x1d6>
 362:	80 91 0a 01 	lds	r24, 0x010A
 366:	8c 70       	andi	r24, 0x0C	; 12
 368:	84 30       	cpi	r24, 0x04	; 4
 36a:	b9 f4       	brne	.+46     	; 0x39a <processing+0x1ae>
 36c:	80 91 0a 01 	lds	r24, 0x010A
 370:	84 ff       	sbrs	r24, 4
 372:	0a c0       	rjmp	.+20     	; 0x388 <processing+0x19c>
 374:	80 91 04 01 	lds	r24, 0x0104
 378:	90 91 05 01 	lds	r25, 0x0105
 37c:	03 96       	adiw	r24, 0x03	; 3
 37e:	90 93 05 01 	sts	0x0105, r25
 382:	80 93 04 01 	sts	0x0104, r24
 386:	09 c0       	rjmp	.+18     	; 0x39a <processing+0x1ae>
 388:	80 91 04 01 	lds	r24, 0x0104
 38c:	90 91 05 01 	lds	r25, 0x0105
 390:	03 97       	sbiw	r24, 0x03	; 3
 392:	90 93 05 01 	sts	0x0105, r25
 396:	80 93 04 01 	sts	0x0104, r24
 39a:	80 91 0a 01 	lds	r24, 0x010A
 39e:	8c 70       	andi	r24, 0x0C	; 12
 3a0:	88 30       	cpi	r24, 0x08	; 8
 3a2:	79 f4       	brne	.+30     	; 0x3c2 <processing+0x1d6>
 3a4:	80 91 0a 01 	lds	r24, 0x010A
 3a8:	84 ff       	sbrs	r24, 4
 3aa:	06 c0       	rjmp	.+12     	; 0x3b8 <processing+0x1cc>
 3ac:	80 91 01 01 	lds	r24, 0x0101
 3b0:	8f 5f       	subi	r24, 0xFF	; 255
 3b2:	80 93 01 01 	sts	0x0101, r24
 3b6:	05 c0       	rjmp	.+10     	; 0x3c2 <processing+0x1d6>
 3b8:	80 91 01 01 	lds	r24, 0x0101
 3bc:	81 50       	subi	r24, 0x01	; 1
 3be:	80 93 01 01 	sts	0x0101, r24
 3c2:	e3 e1       	ldi	r30, 0x13	; 19
 3c4:	f1 e0       	ldi	r31, 0x01	; 1
 3c6:	80 81       	ld	r24, Z
 3c8:	81 60       	ori	r24, 0x01	; 1
 3ca:	80 83       	st	Z, r24
 3cc:	80 e0       	ldi	r24, 0x00	; 0
 3ce:	08 95       	ret

000003d0 <LEDs_manipulations>:
 3d0:	80 91 12 01 	lds	r24, 0x0112
 3d4:	88 23       	and	r24, r24
 3d6:	24 f5       	brge	.+72     	; 0x420 <LEDs_manipulations+0x50>
 3d8:	80 91 11 01 	lds	r24, 0x0111
 3dc:	80 ff       	sbrs	r24, 0
 3de:	02 c0       	rjmp	.+4      	; 0x3e4 <LEDs_manipulations+0x14>
 3e0:	5c 9a       	sbi	0x0b, 4	; 11
 3e2:	01 c0       	rjmp	.+2      	; 0x3e6 <LEDs_manipulations+0x16>
 3e4:	5c 98       	cbi	0x0b, 4	; 11
 3e6:	80 91 0e 01 	lds	r24, 0x010E
 3ea:	80 ff       	sbrs	r24, 0
 3ec:	0f c0       	rjmp	.+30     	; 0x40c <LEDs_manipulations+0x3c>
 3ee:	48 2f       	mov	r20, r24
 3f0:	46 95       	lsr	r20
 3f2:	4f 71       	andi	r20, 0x1F	; 31
 3f4:	22 ee       	ldi	r18, 0xE2	; 226
 3f6:	34 e0       	ldi	r19, 0x04	; 4
 3f8:	42 9f       	mul	r20, r18
 3fa:	c0 01       	movw	r24, r0
 3fc:	43 9f       	mul	r20, r19
 3fe:	90 0d       	add	r25, r0
 400:	11 24       	eor	r1, r1
 402:	90 93 8b 00 	sts	0x008B, r25
 406:	80 93 8a 00 	sts	0x008A, r24
 40a:	05 c0       	rjmp	.+10     	; 0x416 <LEDs_manipulations+0x46>
 40c:	10 92 8b 00 	sts	0x008B, r1
 410:	83 e0       	ldi	r24, 0x03	; 3
 412:	80 93 8a 00 	sts	0x008A, r24
 416:	e2 e1       	ldi	r30, 0x12	; 18
 418:	f1 e0       	ldi	r31, 0x01	; 1
 41a:	80 81       	ld	r24, Z
 41c:	8f 77       	andi	r24, 0x7F	; 127
 41e:	80 83       	st	Z, r24
 420:	08 95       	ret

00000422 <init_pwm_1>:
}


void init_pwm_1 (void){
	TCCR1A = (1<<COM1A1)|(0<<COM1A0)|(0<<COM1B1)|(0<<COM1B0)|(1<<WGM11)|(0<<WGM10);
 422:	82 e8       	ldi	r24, 0x82	; 130
 424:	80 93 80 00 	sts	0x0080, r24
	TCCR1B = (0<<ICNC1)|(0<<ICES1)|(1<<WGM13)|(1<<WGM12)|(0<<CS12)|(1<<CS11)|(0<<CS10);
 428:	8a e1       	ldi	r24, 0x1A	; 26
 42a:	80 93 81 00 	sts	0x0081, r24
	TCCR1C = (0<<FOC1A)|(0<<FOC1B);
 42e:	10 92 82 00 	sts	0x0082, r1
	TIMSK1 = (0<<ICIE1)|(0<<OCIE1B)|(0<<OCIE1A)|(0<<TOIE1);
 432:	10 92 6f 00 	sts	0x006F, r1
	TIFR1 = (0<<ICF1)|(0<<OCF1B)|(0<<OCF1A)|(0<<TOV1);
 436:	16 ba       	out	0x16, r1	; 22
	//TCNT1H and TCNT1L and OCR1AH and OCR1AL and OCR1BH and OCR1BL and ICR1H and ICR1L
	OCR1AH = (uint8_t)(3000>>8);	// начальное значение
 438:	8b e0       	ldi	r24, 0x0B	; 11
 43a:	80 93 89 00 	sts	0x0089, r24
	OCR1AL = (uint8_t)3000;		// при включении
 43e:	88 eb       	ldi	r24, 0xB8	; 184
 440:	80 93 88 00 	sts	0x0088, r24
	OCR1BH = (uint8_t)(10>>8);	// начальное значение
 444:	10 92 8b 00 	sts	0x008B, r1
	OCR1BL = (uint8_t)10;		// при включении
 448:	8a e0       	ldi	r24, 0x0A	; 10
 44a:	80 93 8a 00 	sts	0x008A, r24
 44e:	08 95       	ret

00000450 <init_pwm_0>:
	
}

void init_pwm_0 (void){
	TCCR0A = (1<<COM0A1)|(1<<COM0A0)|(1<<COM0B1)|(1<<COM0B0)|(1<<WGM01)|(1<<WGM00);
 450:	83 ef       	ldi	r24, 0xF3	; 243
 452:	84 bd       	out	0x24, r24	; 36
	TCCR0B = (0<<FOC0A)|(0<<FOC0B)|(1<<WGM02)|(0<<CS02)|(1<<CS01)|(0<<CS00);
 454:	8a e0       	ldi	r24, 0x0A	; 10
 456:	85 bd       	out	0x25, r24	; 37
	TIMSK0 = (0<<OCIE0B)|(0<<OCIE0A)|(0<<TOIE0);
 458:	10 92 6e 00 	sts	0x006E, r1
 45c:	08 95       	ret

0000045e <__vector_18>:
	//TIFR0 = (0<<OCF0B)|(0<<OCF0A)|(0<<TOV0);
	//TCNT0 OCR0A OCR0B
}

ISR(USART_RX_vect){
 45e:	1f 92       	push	r1
 460:	0f 92       	push	r0
 462:	0f b6       	in	r0, 0x3f	; 63
 464:	0f 92       	push	r0
 466:	11 24       	eor	r1, r1
 468:	2f 93       	push	r18
 46a:	3f 93       	push	r19
 46c:	4f 93       	push	r20
 46e:	5f 93       	push	r21
 470:	6f 93       	push	r22
 472:	7f 93       	push	r23
 474:	8f 93       	push	r24
 476:	9f 93       	push	r25
 478:	af 93       	push	r26
 47a:	bf 93       	push	r27
 47c:	ef 93       	push	r30
 47e:	ff 93       	push	r31
	//buffer_RX(UDR0);
	//processing(buffer_RX(UDR0));
	//buffer_receive = UDR0;
	//PORTB = UDR0 ;
	processing(UDR0);
 480:	80 91 c6 00 	lds	r24, 0x00C6
 484:	b3 de       	rcall	.-666    	; 0x1ec <processing>
}
 486:	ff 91       	pop	r31
 488:	ef 91       	pop	r30
 48a:	bf 91       	pop	r27
 48c:	af 91       	pop	r26
 48e:	9f 91       	pop	r25
 490:	8f 91       	pop	r24
 492:	7f 91       	pop	r23
 494:	6f 91       	pop	r22
 496:	5f 91       	pop	r21
 498:	4f 91       	pop	r20
 49a:	3f 91       	pop	r19
 49c:	2f 91       	pop	r18
 49e:	0f 90       	pop	r0
 4a0:	0f be       	out	0x3f, r0	; 63
 4a2:	0f 90       	pop	r0
 4a4:	1f 90       	pop	r1
 4a6:	18 95       	reti

000004a8 <__vector_13>:

ISR(TIMER1_OVF_vect){ //TOIE1
 4a8:	1f 92       	push	r1
 4aa:	0f 92       	push	r0
 4ac:	0f b6       	in	r0, 0x3f	; 63
 4ae:	0f 92       	push	r0
 4b0:	11 24       	eor	r1, r1
	//counter_on_TCNT1();
	//contact_bounce(PORTB,PORTB5);
	//made_randoms_N();
}
 4b2:	0f 90       	pop	r0
 4b4:	0f be       	out	0x3f, r0	; 63
 4b6:	0f 90       	pop	r0
 4b8:	1f 90       	pop	r1
 4ba:	18 95       	reti

000004bc <init_I_O>:

void init_I_O (void){
	PORTB=(0<<PORTB0)|(0<<PORTB1)|(0<<PORTB2)|(0<<PORTB3)|(0<<PORTB4)|(0<<PORTB5);
 4bc:	15 b8       	out	0x05, r1	; 5
	DDRB= (1<<DDB0)|(1<<DDB1)|(1<<DDB2)|(1<<DDB3)|(1<<DDB4)|(1<<DDB5);
 4be:	8f e3       	ldi	r24, 0x3F	; 63
 4c0:	84 b9       	out	0x04, r24	; 4
	/*
	PORTC=(0<<PORTC0)|(0<<PORTC0)|(0<<PORTC2)|(0<<PORTC3)|(0<<PORTC4)|(0<<PORTC5);
	DDRC= (0<<DDC0)|(0<<DDC0)|(0<<DDC2)|(0<<DDC3)|(0<<DDC4)|(0<<DDC5);
	*/
	PORTD=(0<<PORTD0)|(0<<PORTD0)|(0<<PORTD2)|(0<<PORTD3)|(0<<PORTD4)|(0<<PORTD5);
 4c2:	1b b8       	out	0x0b, r1	; 11
	DDRD= (0<<DDD0)|(0<<DDD0)|(0<<DDD2)|(0<<DDD3)|(1<<DDD4)|(0<<DDD5);
 4c4:	80 e1       	ldi	r24, 0x10	; 16
 4c6:	8a b9       	out	0x0a, r24	; 10
 4c8:	08 95       	ret

000004ca <main>:
}

int main(void)
{
	
	init_I_O();
 4ca:	f8 df       	rcall	.-16     	; 0x4bc <init_I_O>
	//init_pwm_2();
	init_pwm_1();
 4cc:	aa df       	rcall	.-172    	; 0x422 <init_pwm_1>
	init_pwm_0();
 4ce:	c0 df       	rcall	.-128    	; 0x450 <init_pwm_0>
	init_variables_main();
 4d0:	e3 dd       	rcall	.-1082   	; 0x98 <init_variables_main>
	USART_Init(MYUBRR);
 4d2:	87 e6       	ldi	r24, 0x67	; 103
 4d4:	90 e0       	ldi	r25, 0x00	; 0
 4d6:	04 d0       	rcall	.+8      	; 0x4e0 <USART_Init>
	sei(); 
 4d8:	78 94       	sei
	
	
	while(1)
	{
		
		init_variables();
 4da:	0d de       	rcall	.-998    	; 0xf6 <init_variables>
		LEDs_manipulations();
 4dc:	79 df       	rcall	.-270    	; 0x3d0 <LEDs_manipulations>
 4de:	fd cf       	rjmp	.-6      	; 0x4da <main+0x10>

000004e0 <USART_Init>:
//инициализация апаратного USART
//настраивам регистры
void USART_Init(uint16_t UBRR)
{
	//Set baud rate
	UBRR0H = (uint8_t)(UBRR>>8);
 4e0:	90 93 c5 00 	sts	0x00C5, r25
	UBRR0L = (uint8_t)UBRR;
 4e4:	80 93 c4 00 	sts	0x00C4, r24
	UCSR0A = (0<<RXC0)|(0<<TXC0)|(1<<UDRE0)|(0<<FE0)|(0<<DOR0)|(0<<UPE0)|(0<<U2X0)|(0<<MPCM0);
 4e8:	80 e2       	ldi	r24, 0x20	; 32
 4ea:	80 93 c0 00 	sts	0x00C0, r24
	//Enable receiver and transmitter
	UCSR0B=(1<<RXCIE0)|(0<<TXCIE0)|(0<<UDRIE0)|(1<<RXEN0)|(1<<TXEN0)|(0<<UCSZ02)|(0<<RXB80)|(0<<TXB80);
 4ee:	88 e9       	ldi	r24, 0x98	; 152
 4f0:	80 93 c1 00 	sts	0x00C1, r24
	// Set frame format: 8data, 2stop bit
	UCSR0C=(0<<UMSEL01)|(0<<UMSEL00)|(0<<UPM01)|(0<<UPM00)|(0<<USBS0)|(1<<UCSZ01)|(1<<UCSZ00)|(0<<UCPOL0);
 4f4:	86 e0       	ldi	r24, 0x06	; 6
 4f6:	80 93 c2 00 	sts	0x00C2, r24
 4fa:	08 95       	ret

000004fc <__tablejump2__>:
 4fc:	ee 0f       	add	r30, r30
 4fe:	ff 1f       	adc	r31, r31

00000500 <__tablejump__>:
 500:	05 90       	lpm	r0, Z+
 502:	f4 91       	lpm	r31, Z
 504:	e0 2d       	mov	r30, r0
 506:	09 94       	ijmp

00000508 <__umulhisi3>:
 508:	a2 9f       	mul	r26, r18
 50a:	b0 01       	movw	r22, r0
 50c:	b3 9f       	mul	r27, r19
 50e:	c0 01       	movw	r24, r0
 510:	a3 9f       	mul	r26, r19
 512:	70 0d       	add	r23, r0
 514:	81 1d       	adc	r24, r1
 516:	11 24       	eor	r1, r1
 518:	91 1d       	adc	r25, r1
 51a:	b2 9f       	mul	r27, r18
 51c:	70 0d       	add	r23, r0
 51e:	81 1d       	adc	r24, r1
 520:	11 24       	eor	r1, r1
 522:	91 1d       	adc	r25, r1
 524:	08 95       	ret

00000526 <_exit>:
 526:	f8 94       	cli

00000528 <__stop_program>:
 528:	ff cf       	rjmp	.-2      	; 0x528 <__stop_program>
